target datalayout = "e-m:e-p270:32:32-p271:32:32-p272:64:64-i64:64-i128:128-f80:128-n8:16:32:64-S128"
target triple = "x86_64-pc-linux-gnu"

%struct.luaEngineCtx = type { ptr }
%struct.luaFunctionCtx = type { i32 }

@.str.3 = private unnamed_addr constant [18 x i8] c"__ERROR_HANDLER__\00", align 1
@.str.31 = private unnamed_addr constant [24 x i8] c"lua_isfunction(lua, -1)\00", align 1
@.str.32 = private unnamed_addr constant [15 x i8] c"function_lua.c\00", align 1
@gc_count = internal global i32 0, align 4

; Function Attrs: nounwind uwtable
define internal void @luaEngineCall(ptr noundef %0, ptr noundef %1, ptr noundef %2, ptr noundef %3, i64 noundef %4, ptr noundef %5, i64 noundef %6) #0 {
  %8 = alloca ptr, align 8
  %9 = alloca ptr, align 8
  %10 = alloca ptr, align 8
  %11 = alloca ptr, align 8
  %12 = alloca i64, align 8
  %13 = alloca ptr, align 8
  %14 = alloca i64, align 8
  %15 = alloca ptr, align 8
  %16 = alloca ptr, align 8
  %17 = alloca ptr, align 8
  store ptr %0, ptr %8, align 8, !tbaa !51
  store ptr %1, ptr %9, align 8, !tbaa !27
  store ptr %2, ptr %10, align 8, !tbaa !27
  store ptr %3, ptr %11, align 8, !tbaa !53
  store i64 %4, ptr %12, align 8, !tbaa !42
  store ptr %5, ptr %13, align 8, !tbaa !53
  store i64 %6, ptr %14, align 8, !tbaa !42
  call void @llvm.lifetime.start.p0(i64 8, ptr %15) #11
  %18 = load ptr, ptr %9, align 8, !tbaa !27
  store ptr %18, ptr %15, align 8, !tbaa !5
  call void @llvm.lifetime.start.p0(i64 8, ptr %16) #11
  %19 = load ptr, ptr %15, align 8, !tbaa !5
  %20 = getelementptr inbounds nuw %struct.luaEngineCtx, ptr %19, i32 0, i32 0
  %21 = load ptr, ptr %20, align 8, !tbaa !10
  store ptr %21, ptr %16, align 8, !tbaa !28
  call void @llvm.lifetime.start.p0(i64 8, ptr %17) #11
  %22 = load ptr, ptr %10, align 8, !tbaa !27
  store ptr %22, ptr %17, align 8, !tbaa !55
  %23 = load ptr, ptr %16, align 8, !tbaa !28
  call void @lua_pushstring(ptr noundef %23, ptr noundef @.str.3)
  %24 = load ptr, ptr %16, align 8, !tbaa !28
  call void @lua_gettable(ptr noundef %24, i32 noundef -10000)
  %25 = load ptr, ptr %16, align 8, !tbaa !28
  %26 = load ptr, ptr %17, align 8, !tbaa !55
  %27 = getelementptr inbounds nuw %struct.luaFunctionCtx, ptr %26, i32 0, i32 0
  %28 = load i32, ptr %27, align 4, !tbaa !56
  call void @lua_rawgeti(ptr noundef %25, i32 noundef -10000, i32 noundef %28)
  %29 = load ptr, ptr %16, align 8, !tbaa !28
  %30 = call i32 @lua_type(ptr noundef %29, i32 noundef -1)
  %31 = icmp eq i32 %30, 6
  %32 = xor i1 %31, true
  %33 = xor i1 %32, true
  %34 = zext i1 %33 to i32
  %35 = sext i32 %34 to i64
  %36 = call i64 @llvm.expect.i64(i64 %35, i64 1)
  %37 = icmp ne i64 %36, 0
  br i1 %37, label %38, label %39

38:                                               ; preds = %7
  br label %41

39:                                               ; preds = %7
  call void @_serverAssert(ptr noundef @.str.31, ptr noundef @.str.32, i32 noundef 164)
  call void @abort() #14
  unreachable

40:                                               ; No predecessors!
  br label %41

41:                                               ; preds = %40, %38
  %42 = load ptr, ptr %8, align 8, !tbaa !51
  %43 = load ptr, ptr %16, align 8, !tbaa !28
  %44 = load ptr, ptr %11, align 8, !tbaa !53
  %45 = load i64, ptr %12, align 8, !tbaa !42
  %46 = load ptr, ptr %13, align 8, !tbaa !53
  %47 = load i64, ptr %14, align 8, !tbaa !42
  call void @luaCallFunction(ptr noundef %42, ptr noundef %43, ptr noundef %44, i64 noundef %45, ptr noundef %46, i64 noundef %47, i32 noundef 0)
  %48 = load ptr, ptr %16, align 8, !tbaa !28
  call void @lua_settop(ptr noundef %48, i32 noundef -2)
  %49 = load ptr, ptr %16, align 8, !tbaa !28
  call void @luaGC(ptr noundef %49, ptr noundef @gc_count)
  call void @llvm.lifetime.end.p0(i64 8, ptr %17) #11
  call void @llvm.lifetime.end.p0(i64 8, ptr %16) #11
  call void @llvm.lifetime.end.p0(i64 8, ptr %15) #11
  ret void
}