; Function Attrs: nounwind uwtable
define internal void @luaEngineCall(ptr noundef %0, ptr noundef readonly captures(none) %1, ptr noundef readonly captures(none) %2, ptr noundef %3, i64 noundef %4, ptr noundef %5, i64 noundef %6) #0 {
  %8 = load ptr, ptr %1, align 8, !tbaa !5
  tail call void @lua_pushstring(ptr noundef %8, ptr noundef nonnull @.str.3) #9
  tail call void @lua_gettable(ptr noundef %8, i32 noundef -10000) #9
  %9 = load i32, ptr %2, align 4, !tbaa !12
  tail call void @lua_rawgeti(ptr noundef %8, i32 noundef -10000, i32 noundef %9) #9
  %10 = tail call i32 @lua_type(ptr noundef %8, i32 noundef -1) #9
  %11 = icmp eq i32 %10, 6
  br i1 %11, label %13, label %12, !prof !31

12:                                               ; preds = %7
  tail call void @_serverAssert(ptr noundef nonnull @.str.31, ptr noundef nonnull @.str.32, i32 noundef 164) #9
  tail call void @abort() #11
  unreachable

13:                                               ; preds = %7
  tail call void @luaCallFunction(ptr noundef %0, ptr noundef %8, ptr noundef %3, i64 noundef %4, ptr noundef %5, i64 noundef %6, i32 noundef 0) #9
  tail call void @lua_settop(ptr noundef %8, i32 noundef -2) #9
  tail call void @luaGC(ptr noundef %8, ptr noundef nonnull @gc_count) #9
  ret void
}